; Function Attrs: nounwind uwtable
define internal fastcc void @__quicklistInsertPlainNode(ptr noundef captures(none) %0, ptr noundef %1, ptr noundef readonly captures(none) %2, i64 noundef %3, i32 noundef %4) unnamed_addr #1 {
  %6 = tail call noalias dereferenceable_or_null(40) ptr @zmalloc(i64 noundef 40) #22
  %7 = getelementptr inbounds nuw i8, ptr %6, i64 32
  %8 = load i32, ptr %7, align 8
  tail call void @llvm.memset.p0.i64(ptr noundef nonnull align 8 dereferenceable(16) %6, i8 0, i64 16, i1 false)
  %9 = tail call noalias ptr @zmalloc(i64 noundef %3) #22
  tail call void @llvm.memcpy.p0.p0.i64(ptr align 1 %9, ptr align 1 %2, i64 %3, i1 false)
  %10 = and i32 %8, -6291456
  %11 = getelementptr inbounds nuw i8, ptr %6, i64 24
  %12 = getelementptr inbounds nuw i8, ptr %6, i64 16
  store ptr %9, ptr %12, align 8, !tbaa !9
  store i64 %3, ptr %11, align 8, !tbaa !15
  %13 = or disjoint i32 %10, 327681
  store i32 %13, ptr %7, align 8
  tail call void @__quicklistInsertNode(ptr noundef %0, ptr noundef %1, ptr noundef nonnull %6, i32 noundef %4)
  %14 = getelementptr inbounds nuw i8, ptr %0, i64 16
  %15 = load i64, ptr %14, align 8, !tbaa !5
  %16 = add i64 %15, 1
  store i64 %16, ptr %14, align 8, !tbaa !5
  ret void
}